(dp0
S'frame_id'
p1
V/bottom_left
p2
sS'offset_x'
p3
V-0.1
p4
sS'offset_y'
p5
V0.15
p6
sS'offset_z'
p7
V0.0
p8
sS'resolution'
p9
V0.0007
p10
sS'polygons'
p11
(dp12
V1
p13
(iprojected_interface_builder.data_structures
PolygonInfo
p14
(dp15
S'id'
p16
g13
sS'text_rect'
p17
cPySide.QtCore
QRect
p18
(I39
I-390
I23
I41
tp19
Rp20
sS'polygon'
p21
cPySide.QtGui
QPolygon
p22
((lp23
cPySide.QtCore
QPoint
p24
(I100
I-320
tp25
Rp26
ag24
(I100
I-420
tp27
Rp28
ag24
(I0
I-420
tp29
Rp30
ag24
(I0
I-320
tp31
Rp32
atp33
Rp34
sS'name'
p35
V1
p36
sbsV3
p37
(iprojected_interface_builder.data_structures
PolygonInfo
p38
(dp39
g16
g37
sg17
g18
(I334
I-390
I73
I41
tp40
Rp41
sg21
g22
((lp42
g24
(I420
I-320
tp43
Rp44
ag24
(I420
I-420
tp45
Rp46
ag24
(I320
I-420
tp47
Rp48
ag24
(I320
I-320
tp49
Rp50
atp51
Rp52
sg35
VDEF
p53
sbsV2
p54
(iprojected_interface_builder.data_structures
PolygonInfo
p55
(dp56
g16
g54
sg17
g18
(I173
I-390
I76
I41
tp57
Rp58
sg21
g22
((lp59
g24
(I260
I-320
tp60
Rp61
ag24
(I260
I-420
tp62
Rp63
ag24
(I160
I-420
tp64
Rp65
ag24
(I160
I-320
tp66
Rp67
atp68
Rp69
sg35
VABC
p70
sbsV5
p71
(iprojected_interface_builder.data_structures
PolygonInfo
p72
(dp73
g16
g71
sg17
g18
(I183
I-230
I56
I41
tp74
Rp75
sg21
g22
((lp76
g24
(I260
I-160
tp77
Rp78
ag24
(I260
I-260
tp79
Rp80
ag24
(I160
I-260
tp81
Rp82
ag24
(I160
I-160
tp83
Rp84
atp85
Rp86
sg35
VJKL
p87
sbsV4
p88
(iprojected_interface_builder.data_structures
PolygonInfo
p89
(dp90
g16
g88
sg17
g18
(I17
I-230
I68
I41
tp91
Rp92
sg21
g22
((lp93
g24
(I100
I-160
tp94
Rp95
ag24
(I100
I-260
tp96
Rp97
ag24
(I0
I-260
tp98
Rp99
ag24
(I0
I-160
tp100
Rp101
atp102
Rp103
sg35
VGHI
p104
sbsV7
p105
(iprojected_interface_builder.data_structures
PolygonInfo
p106
(dp107
g16
g105
sg17
g18
(I0
I-70
I102
I41
tp108
Rp109
sg21
g22
((lp110
g24
(I0
I0
tp111
Rp112
ag24
(I100
I0
tp113
Rp114
ag24
(I100
I-100
tp115
Rp116
ag24
(I0
I-100
tp117
Rp118
atp119
Rp120
sg35
VPQRS
p121
sbsV6
p122
(iprojected_interface_builder.data_structures
PolygonInfo
p123
(dp124
g16
g122
sg17
g18
(I326
I-230
I90
I41
tp125
Rp126
sg21
g22
((lp127
g24
(I420
I-160
tp128
Rp129
ag24
(I320
I-160
tp130
Rp131
ag24
(I320
I-260
tp132
Rp133
ag24
(I420
I-260
tp134
Rp135
atp136
Rp137
sg35
VMNO
p138
sbsV9
p139
(iprojected_interface_builder.data_structures
PolygonInfo
p140
(dp141
g16
g139
sg17
g18
(I315
I-70
I111
I41
tp142
Rp143
sg21
g22
((lp144
g24
(I320
I-100
tp145
Rp146
ag24
(I320
I0
tp147
Rp148
ag24
(I420
I0
tp149
Rp150
ag24
(I420
I-100
tp151
Rp152
atp153
Rp154
sg35
VWXYZ
p155
sbsV8
p156
(iprojected_interface_builder.data_structures
PolygonInfo
p157
(dp158
g16
g156
sg17
g18
(I173
I-70
I76
I41
tp159
Rp160
sg21
g22
((lp161
g24
(I160
I0
tp162
Rp163
ag24
(I160
I-100
tp164
Rp165
ag24
(I260
I-100
tp166
Rp167
ag24
(I260
I0
tp168
Rp169
atp170
Rp171
sg35
VTUV
p172
sbss.